; Function Attrs: mustprogress uwtable
define hidden noundef nonnull ptr @_ZN4nori30MitchellNetravaliFilter_createERKNS_12PropertyListE(ptr noundef nonnull align 8 dereferenceable(48) %0) #3 personality ptr @__gxx_personality_v0 {
  %2 = tail call noalias noundef nonnull dereferenceable(24) ptr @_Znwm(i64 noundef 24) #13
  invoke void @_ZN4nori23MitchellNetravaliFilterC2ERKNS_12PropertyListE(ptr noundef nonnull align 8 dereferenceable(20) %2, ptr noundef nonnull align 8 dereferenceable(48) %0)
          to label %3 unwind label %4

3:                                                ; preds = %1
  ret ptr %2

4:                                                ; preds = %1
  %5 = landingpad { ptr, i32 }
          cleanup
  tail call void @_ZdlPv(ptr noundef nonnull %2) #14
  resume { ptr, i32 } %5
}